target datalayout = "e-m:e-p270:32:32-p271:32:32-p272:64:64-i64:64-i128:128-f80:128-n8:16:32:64-S128"
target triple = "x86_64-pc-linux-gnu"

%struct.AVRational = type { i32, i32 }

; Function Attrs: nounwind uwtable
define void @ff_rescale_interval(i64 %0, i64 %1, ptr noundef %2, ptr noundef %3, ptr noundef %4) #0 {
  %6 = alloca %struct.AVRational, align 4
  %7 = alloca %struct.AVRational, align 4
  %8 = alloca ptr, align 8
  %9 = alloca ptr, align 8
  %10 = alloca ptr, align 8
  store i64 %0, ptr %6, align 4
  store i64 %1, ptr %7, align 4
  store ptr %2, ptr %8, align 8, !tbaa !97
  store ptr %3, ptr %9, align 8, !tbaa !97
  store ptr %4, ptr %10, align 8, !tbaa !97
  %11 = load ptr, ptr %9, align 8, !tbaa !97
  %12 = load i64, ptr %11, align 8, !tbaa !11
  %13 = load i64, ptr %6, align 4
  %14 = load i64, ptr %7, align 4
  %15 = call i64 @av_rescale_q(i64 noundef %12, i64 %13, i64 %14) #12
  %16 = load ptr, ptr %9, align 8, !tbaa !97
  store i64 %15, ptr %16, align 8, !tbaa !11
  %17 = load ptr, ptr %8, align 8, !tbaa !97
  %18 = load i64, ptr %17, align 8, !tbaa !11
  %19 = load i64, ptr %6, align 4
  %20 = load i64, ptr %7, align 4
  %21 = call i64 @av_rescale_q_rnd(i64 noundef %18, i64 %19, i64 %20, i32 noundef 8195) #12
  %22 = load ptr, ptr %8, align 8, !tbaa !97
  store i64 %21, ptr %22, align 8, !tbaa !11
  %23 = load ptr, ptr %10, align 8, !tbaa !97
  %24 = load i64, ptr %23, align 8, !tbaa !11
  %25 = load i64, ptr %6, align 4
  %26 = load i64, ptr %7, align 4
  %27 = call i64 @av_rescale_q_rnd(i64 noundef %24, i64 %25, i64 %26, i32 noundef 8194) #12
  %28 = load ptr, ptr %10, align 8, !tbaa !97
  store i64 %27, ptr %28, align 8, !tbaa !11
  ret void
}