; Function Attrs: mustprogress nofree nosync nounwind willreturn memory(argmem: readwrite) uwtable
define void @ff_rescale_interval(i64 %0, i64 %1, ptr noundef captures(none) %2, ptr noundef captures(none) %3, ptr noundef captures(none) %4) local_unnamed_addr #13 {
  %6 = load i64, ptr %3, align 8, !tbaa !54
  %7 = tail call i64 @av_rescale_q(i64 noundef %6, i64 %0, i64 %1) #16
  store i64 %7, ptr %3, align 8, !tbaa !54
  %8 = load i64, ptr %2, align 8, !tbaa !54
  %9 = tail call i64 @av_rescale_q_rnd(i64 noundef %8, i64 %0, i64 %1, i32 noundef 8195) #16
  store i64 %9, ptr %2, align 8, !tbaa !54
  %10 = load i64, ptr %4, align 8, !tbaa !54
  %11 = tail call i64 @av_rescale_q_rnd(i64 noundef %10, i64 %0, i64 %1, i32 noundef 8194) #16
  store i64 %11, ptr %4, align 8, !tbaa !54
  ret void
}